; Function Attrs: mustprogress uwtable
define noundef ptr @_ZNK6icu_7714TimeZoneFormat23createTimeZoneForOffsetEi(ptr nonnull readnone align 8 captures(none) %0, i32 noundef %1) local_unnamed_addr #1 align 2 personality ptr @__gxx_personality_v0 {
  %3 = alloca %"class.icu_77::UnicodeString", align 8
  %4 = alloca %"class.icu_77::ConstChar16Ptr", align 8
  %5 = icmp eq i32 %1, 0
  br i1 %5, label %6, label %17

6:                                                ; preds = %2
  call void @llvm.lifetime.start.p0(i64 64, ptr nonnull %3) #22
  store ptr @_ZN6icu_77L8TZID_GMTE, ptr %4, align 8, !tbaa !42
  invoke void @_ZN6icu_7713UnicodeStringC1EaNS_14ConstChar16PtrEi(ptr noundef nonnull align 8 dereferenceable(64) %3, i8 noundef signext 1, ptr noundef nonnull %4, i32 noundef -1)
          to label %7 unwind label %11

7:                                                ; preds = %6
  %8 = invoke noundef ptr @_ZN6icu_778TimeZone14createTimeZoneERKNS_13UnicodeStringE(ptr noundef nonnull align 8 dereferenceable(64) %3)
          to label %9 unwind label %13

9:                                                ; preds = %7
  call void @_ZN6icu_7713UnicodeStringD1Ev(ptr noundef nonnull align 8 dereferenceable(64) %3) #22
  %10 = load ptr, ptr %4, align 8, !tbaa !42
  call void asm sideeffect "", "rm,~{memory},~{dirflag},~{fpsr},~{flags}"(ptr %10) #22, !srcloc !44
  call void @llvm.lifetime.end.p0(i64 64, ptr nonnull %3) #22
  br label %19

11:                                               ; preds = %6
  %12 = landingpad { ptr, i32 }
          cleanup
  br label %15

13:                                               ; preds = %7
  %14 = landingpad { ptr, i32 }
          cleanup
  call void @_ZN6icu_7713UnicodeStringD1Ev(ptr noundef nonnull align 8 dereferenceable(64) %3) #22
  br label %15

15:                                               ; preds = %13, %11
  %.pn = phi { ptr, i32 } [ %14, %13 ], [ %12, %11 ]
  %16 = load ptr, ptr %4, align 8, !tbaa !42
  call void asm sideeffect "", "rm,~{memory},~{dirflag},~{fpsr},~{flags}"(ptr %16) #22, !srcloc !44
  call void @llvm.lifetime.end.p0(i64 64, ptr nonnull %3) #22
  resume { ptr, i32 } %.pn

17:                                               ; preds = %2
  %18 = tail call noundef ptr @_ZN6icu_778ZoneMeta20createCustomTimeZoneEi(i32 noundef %1)
  br label %19

19:                                               ; preds = %17, %9
  %.05 = phi ptr [ %8, %9 ], [ %18, %17 ]
  ret ptr %.05
}